target datalayout = "e-m:e-p270:32:32-p271:32:32-p272:64:64-i64:64-i128:128-f80:128-n8:16:32:64-S128"
target triple = "x86_64-pc-linux-gnu"

%struct.Odc_Man_t_ = type { i32, i32, i32, i32, i32, i32, ptr, ptr, ptr, ptr, i32, i32, i32, ptr, i16, i16, ptr, i32, ptr, i32, i32, ptr, ptr, ptr, i32, i32, i32, i32, i32, i32, i64, i64, i64, i64, i64, i64, i64, i64 }
%struct.Vec_Ptr_t_ = type { i32, i32, ptr }
%struct.Vec_Int_t_ = type { i32, i32, ptr }
%struct.Abc_Obj_t_ = type { ptr, ptr, i32, i32, %struct.Vec_Int_t_, %struct.Vec_Int_t_, %union.anon, %union.anon.0 }
%union.anon = type { ptr }
%union.anon.0 = type { ptr }
%struct.Abc_Ntk_t_ = type { i32, i32, ptr, ptr, ptr, ptr, ptr, ptr, ptr, ptr, ptr, ptr, ptr, [11 x i32], i32, i32, i32, i32, ptr, i32, ptr, ptr, i32, i32, i32, double, i32, %struct.Vec_Int_t_, ptr, ptr, ptr, ptr, ptr, float, i32, ptr, ptr, ptr, ptr, ptr, ptr, ptr, ptr, ptr, ptr, ptr, ptr, ptr, ptr, ptr, ptr, ptr, ptr, ptr, ptr, ptr, ptr }

; Function Attrs: inlinehint nounwind uwtable
define internal void @Vec_IntGrow(ptr noundef %0, i32 noundef %1) #5 {
  %3 = alloca ptr, align 8
  %4 = alloca i32, align 4
  store ptr %0, ptr %3, align 8, !tbaa !52
  store i32 %1, ptr %4, align 4, !tbaa !3
  %5 = load ptr, ptr %3, align 8, !tbaa !52
  %6 = getelementptr inbounds nuw %struct.Vec_Int_t_, ptr %5, i32 0, i32 0
  %7 = load i32, ptr %6, align 8, !tbaa !55
  %8 = load i32, ptr %4, align 4, !tbaa !3
  %9 = icmp sge i32 %7, %8
  br i1 %9, label %10, label %11

10:                                               ; preds = %2
  br label %36

11:                                               ; preds = %2
  %12 = load ptr, ptr %3, align 8, !tbaa !52
  %13 = getelementptr inbounds nuw %struct.Vec_Int_t_, ptr %12, i32 0, i32 2
  %14 = load ptr, ptr %13, align 8, !tbaa !56
  %15 = icmp ne ptr %14, null
  br i1 %15, label %16, label %24

16:                                               ; preds = %11
  %17 = load ptr, ptr %3, align 8, !tbaa !52
  %18 = getelementptr inbounds nuw %struct.Vec_Int_t_, ptr %17, i32 0, i32 2
  %19 = load ptr, ptr %18, align 8, !tbaa !56
  %20 = load i32, ptr %4, align 4, !tbaa !3
  %21 = sext i32 %20 to i64
  %22 = mul i64 4, %21
  %23 = call ptr @realloc(ptr noundef %19, i64 noundef %22) #13
  br label %29

24:                                               ; preds = %11
  %25 = load i32, ptr %4, align 4, !tbaa !3
  %26 = sext i32 %25 to i64
  %27 = mul i64 4, %26
  %28 = call noalias ptr @malloc(i64 noundef %27) #11
  br label %29

29:                                               ; preds = %24, %16
  %30 = phi ptr [ %23, %16 ], [ %28, %24 ]
  %31 = load ptr, ptr %3, align 8, !tbaa !52
  %32 = getelementptr inbounds nuw %struct.Vec_Int_t_, ptr %31, i32 0, i32 2
  store ptr %30, ptr %32, align 8, !tbaa !56
  %33 = load i32, ptr %4, align 4, !tbaa !3
  %34 = load ptr, ptr %3, align 8, !tbaa !52
  %35 = getelementptr inbounds nuw %struct.Vec_Int_t_, ptr %34, i32 0, i32 0
  store i32 %33, ptr %35, align 8, !tbaa !55
  br label %36

36:                                               ; preds = %29, %10
  ret void
}

; Function Attrs: inlinehint nounwind uwtable
define internal void @Vec_IntFill(ptr noundef %0, i32 noundef %1, i32 noundef %2) #5 {
  %4 = alloca ptr, align 8
  %5 = alloca i32, align 4
  %6 = alloca i32, align 4
  %7 = alloca i32, align 4
  store ptr %0, ptr %4, align 8, !tbaa !52
  store i32 %1, ptr %5, align 4, !tbaa !3
  store i32 %2, ptr %6, align 4, !tbaa !3
  call void @llvm.lifetime.start.p0(i64 4, ptr %7) #10
  %8 = load ptr, ptr %4, align 8, !tbaa !52
  %9 = load i32, ptr %5, align 4, !tbaa !3
  call void @Vec_IntGrow(ptr noundef %8, i32 noundef %9)
  store i32 0, ptr %7, align 4, !tbaa !3
  br label %10

10:                                               ; preds = %22, %3
  %11 = load i32, ptr %7, align 4, !tbaa !3
  %12 = load i32, ptr %5, align 4, !tbaa !3
  %13 = icmp slt i32 %11, %12
  br i1 %13, label %14, label %25

14:                                               ; preds = %10
  %15 = load i32, ptr %6, align 4, !tbaa !3
  %16 = load ptr, ptr %4, align 8, !tbaa !52
  %17 = getelementptr inbounds nuw %struct.Vec_Int_t_, ptr %16, i32 0, i32 2
  %18 = load ptr, ptr %17, align 8, !tbaa !56
  %19 = load i32, ptr %7, align 4, !tbaa !3
  %20 = sext i32 %19 to i64
  %21 = getelementptr inbounds i32, ptr %18, i64 %20
  store i32 %15, ptr %21, align 4, !tbaa !3
  br label %22

22:                                               ; preds = %14
  %23 = load i32, ptr %7, align 4, !tbaa !3
  %24 = add nsw i32 %23, 1
  store i32 %24, ptr %7, align 4, !tbaa !3
  br label %10, !llvm.loop !147

25:                                               ; preds = %10
  %26 = load i32, ptr %5, align 4, !tbaa !3
  %27 = load ptr, ptr %4, align 8, !tbaa !52
  %28 = getelementptr inbounds nuw %struct.Vec_Int_t_, ptr %27, i32 0, i32 1
  store i32 %26, ptr %28, align 4, !tbaa !53
  call void @llvm.lifetime.end.p0(i64 4, ptr %7) #10
  ret void
}

; Function Attrs: inlinehint nounwind uwtable
define internal i32 @Abc_NtkObjNumMax(ptr noundef %0) #5 {
  %2 = alloca ptr, align 8
  store ptr %0, ptr %2, align 8, !tbaa !103
  %3 = load ptr, ptr %2, align 8, !tbaa !103
  %4 = getelementptr inbounds nuw %struct.Abc_Ntk_t_, ptr %3, i32 0, i32 5
  %5 = load ptr, ptr %4, align 8, !tbaa !98
  %6 = call i32 @Vec_PtrSize(ptr noundef %5)
  ret i32 %6
}

; Function Attrs: inlinehint nounwind uwtable
define internal void @Abc_NtkIncrementTravId(ptr noundef %0) #5 {
  %2 = alloca ptr, align 8
  store ptr %0, ptr %2, align 8, !tbaa !103
  %3 = load ptr, ptr %2, align 8, !tbaa !103
  %4 = getelementptr inbounds nuw %struct.Abc_Ntk_t_, ptr %3, i32 0, i32 27
  %5 = getelementptr inbounds nuw %struct.Vec_Int_t_, ptr %4, i32 0, i32 2
  %6 = load ptr, ptr %5, align 8, !tbaa !104
  %7 = icmp ne ptr %6, null
  br i1 %7, label %14, label %8

8:                                                ; preds = %1
  %9 = load ptr, ptr %2, align 8, !tbaa !103
  %10 = getelementptr inbounds nuw %struct.Abc_Ntk_t_, ptr %9, i32 0, i32 27
  %11 = load ptr, ptr %2, align 8, !tbaa !103
  %12 = call i32 @Abc_NtkObjNumMax(ptr noundef %11)
  %13 = add nsw i32 %12, 500
  call void @Vec_IntFill(ptr noundef %10, i32 noundef %13, i32 noundef 0)
  br label %14

14:                                               ; preds = %8, %1
  %15 = load ptr, ptr %2, align 8, !tbaa !103
  %16 = getelementptr inbounds nuw %struct.Abc_Ntk_t_, ptr %15, i32 0, i32 26
  %17 = load i32, ptr %16, align 8, !tbaa !83
  %18 = add nsw i32 %17, 1
  store i32 %18, ptr %16, align 8, !tbaa !83
  ret void
}

; Function Attrs: inlinehint nounwind uwtable
define internal ptr @Vec_PtrEntry(ptr noundef %0, i32 noundef %1) #5 {
  %3 = alloca ptr, align 8
  %4 = alloca i32, align 4
  store ptr %0, ptr %3, align 8, !tbaa !47
  store i32 %1, ptr %4, align 4, !tbaa !3
  %5 = load ptr, ptr %3, align 8, !tbaa !47
  %6 = getelementptr inbounds nuw %struct.Vec_Ptr_t_, ptr %5, i32 0, i32 2
  %7 = load ptr, ptr %6, align 8, !tbaa !51
  %8 = load i32, ptr %4, align 4, !tbaa !3
  %9 = sext i32 %8 to i64
  %10 = getelementptr inbounds ptr, ptr %7, i64 %9
  %11 = load ptr, ptr %10, align 8, !tbaa !57
  ret ptr %11
}

; Function Attrs: inlinehint nounwind uwtable
define internal i32 @Vec_PtrSize(ptr noundef %0) #5 {
  %2 = alloca ptr, align 8
  store ptr %0, ptr %2, align 8, !tbaa !47
  %3 = load ptr, ptr %2, align 8, !tbaa !47
  %4 = getelementptr inbounds nuw %struct.Vec_Ptr_t_, ptr %3, i32 0, i32 1
  %5 = load i32, ptr %4, align 4, !tbaa !48
  ret i32 %5
}

; Function Attrs: nounwind uwtable
define void @Abc_NtkDontCareWinSweepLeafTfo(ptr noundef %0) #0 {
  %2 = alloca ptr, align 8
  %3 = alloca ptr, align 8
  %4 = alloca i32, align 4
  store ptr %0, ptr %2, align 8, !tbaa !7
  call void @llvm.lifetime.start.p0(i64 8, ptr %3) #10
  call void @llvm.lifetime.start.p0(i64 4, ptr %4) #10
  %5 = load ptr, ptr %2, align 8, !tbaa !7
  %6 = getelementptr inbounds nuw %struct.Odc_Man_t_, ptr %5, i32 0, i32 6
  %7 = load ptr, ptr %6, align 8, !tbaa !100
  %8 = getelementptr inbounds nuw %struct.Abc_Obj_t_, ptr %7, i32 0, i32 0
  %9 = load ptr, ptr %8, align 8, !tbaa !97
  call void @Abc_NtkIncrementTravId(ptr noundef %9)
  store i32 0, ptr %4, align 4, !tbaa !3
  br label %10

10:                                               ; preds = %40, %1
  %11 = load i32, ptr %4, align 4, !tbaa !3
  %12 = load ptr, ptr %2, align 8, !tbaa !7
  %13 = getelementptr inbounds nuw %struct.Odc_Man_t_, ptr %12, i32 0, i32 7
  %14 = load ptr, ptr %13, align 8, !tbaa !101
  %15 = call i32 @Vec_PtrSize(ptr noundef %14)
  %16 = icmp slt i32 %11, %15
  br i1 %16, label %17, label %23

17:                                               ; preds = %10
  %18 = load ptr, ptr %2, align 8, !tbaa !7
  %19 = getelementptr inbounds nuw %struct.Odc_Man_t_, ptr %18, i32 0, i32 7
  %20 = load ptr, ptr %19, align 8, !tbaa !101
  %21 = load i32, ptr %4, align 4, !tbaa !3
  %22 = call ptr @Vec_PtrEntry(ptr noundef %20, i32 noundef %21)
  store ptr %22, ptr %3, align 8, !tbaa !81
  br label %23

23:                                               ; preds = %17, %10
  %24 = phi i1 [ false, %10 ], [ true, %17 ]
  br i1 %24, label %25, label %43

25:                                               ; preds = %23
  %26 = load ptr, ptr %3, align 8, !tbaa !81
  %27 = load ptr, ptr %2, align 8, !tbaa !7
  %28 = getelementptr inbounds nuw %struct.Odc_Man_t_, ptr %27, i32 0, i32 6
  %29 = load ptr, ptr %28, align 8, !tbaa !100
  %30 = getelementptr inbounds nuw %struct.Abc_Obj_t_, ptr %29, i32 0, i32 3
  %31 = load i32, ptr %30, align 4
  %32 = lshr i32 %31, 12
  %33 = load ptr, ptr %2, align 8, !tbaa !7
  %34 = getelementptr inbounds nuw %struct.Odc_Man_t_, ptr %33, i32 0, i32 1
  %35 = load i32, ptr %34, align 4, !tbaa !20
  %36 = add nsw i32 %32, %35
  %37 = load ptr, ptr %2, align 8, !tbaa !7
  %38 = getelementptr inbounds nuw %struct.Odc_Man_t_, ptr %37, i32 0, i32 6
  %39 = load ptr, ptr %38, align 8, !tbaa !100
  call void @Abc_NtkDontCareWinSweepLeafTfo_rec(ptr noundef %26, i32 noundef %36, ptr noundef %39)
  br label %40

40:                                               ; preds = %25
  %41 = load i32, ptr %4, align 4, !tbaa !3
  %42 = add nsw i32 %41, 1
  store i32 %42, ptr %4, align 4, !tbaa !3
  br label %10, !llvm.loop !102

43:                                               ; preds = %23
  call void @llvm.lifetime.end.p0(i64 4, ptr %4) #10
  call void @llvm.lifetime.end.p0(i64 8, ptr %3) #10
  ret void
}

; Function Attrs: nounwind uwtable
define i32 @Abc_NtkDontCareWindow(ptr noundef %0) #0 {
  %2 = alloca i32, align 4
  %3 = alloca ptr, align 8
  store ptr %0, ptr %3, align 8, !tbaa !7
  %4 = load ptr, ptr %3, align 8, !tbaa !7
  call void @Abc_NtkDontCareWinSweepLeafTfo(ptr noundef %4)
  %5 = load ptr, ptr %3, align 8, !tbaa !7
  call void @Abc_NtkDontCareWinCollectRoots(ptr noundef %5)
  %6 = load ptr, ptr %3, align 8, !tbaa !7
  %7 = getelementptr inbounds nuw %struct.Odc_Man_t_, ptr %6, i32 0, i32 8
  %8 = load ptr, ptr %7, align 8, !tbaa !25
  %9 = call i32 @Vec_PtrSize(ptr noundef %8)
  %10 = icmp eq i32 %9, 1
  br i1 %10, label %11, label %21

11:                                               ; preds = %1
  %12 = load ptr, ptr %3, align 8, !tbaa !7
  %13 = getelementptr inbounds nuw %struct.Odc_Man_t_, ptr %12, i32 0, i32 8
  %14 = load ptr, ptr %13, align 8, !tbaa !25
  %15 = call ptr @Vec_PtrEntry(ptr noundef %14, i32 noundef 0)
  %16 = load ptr, ptr %3, align 8, !tbaa !7
  %17 = getelementptr inbounds nuw %struct.Odc_Man_t_, ptr %16, i32 0, i32 6
  %18 = load ptr, ptr %17, align 8, !tbaa !100
  %19 = icmp eq ptr %15, %18
  br i1 %19, label %20, label %21

20:                                               ; preds = %11
  store i32 0, ptr %2, align 4
  br label %27

21:                                               ; preds = %11, %1
  %22 = load ptr, ptr %3, align 8, !tbaa !7
  %23 = call i32 @Abc_NtkDontCareWinAddMissing(ptr noundef %22)
  %24 = icmp ne i32 %23, 0
  br i1 %24, label %26, label %25

25:                                               ; preds = %21
  store i32 0, ptr %2, align 4
  br label %27

26:                                               ; preds = %21
  store i32 1, ptr %2, align 4
  br label %27

27:                                               ; preds = %26, %25, %20
  %28 = load i32, ptr %2, align 4
  ret i32 %28
}