; Function Attrs: nounwind uwtable
define range(i32 0, 2) i32 @Abc_NtkDontCareWindow(ptr noundef readonly captures(none) %0) local_unnamed_addr #0 {
  %2 = getelementptr inbounds nuw i8, ptr %0, i64 24
  %3 = load ptr, ptr %2, align 8, !tbaa !98
  %4 = load ptr, ptr %3, align 8, !tbaa !78
  %5 = getelementptr inbounds nuw i8, ptr %4, i64 232
  %6 = load ptr, ptr %5, align 8, !tbaa !99
  %.not.i.i = icmp eq ptr %6, null
  br i1 %.not.i.i, label %7, label %Abc_NtkIncrementTravId.exit.i

7:                                                ; preds = %1
  %8 = getelementptr inbounds nuw i8, ptr %4, i64 224
  %9 = getelementptr i8, ptr %4, i64 32
  %.val.i.i = load ptr, ptr %9, align 8, !tbaa !96
  %10 = getelementptr i8, ptr %.val.i.i, i64 4
  %.val.val.i.i = load i32, ptr %10, align 4, !tbaa !21
  %11 = add nsw i32 %.val.val.i.i, 500
  %12 = load i32, ptr %8, align 8, !tbaa !39
  %.not.i.i.i.i = icmp slt i32 %12, %11
  br i1 %.not.i.i.i.i, label %13, label %Vec_IntGrow.exit.i.i.i

13:                                               ; preds = %7
  %14 = sext i32 %11 to i64
  %15 = shl nsw i64 %14, 2
  %16 = tail call noalias ptr @malloc(i64 noundef %15) #20
  store ptr %16, ptr %5, align 8, !tbaa !40
  store i32 %11, ptr %8, align 8, !tbaa !39
  br label %Vec_IntGrow.exit.i.i.i

Vec_IntGrow.exit.i.i.i:                           ; preds = %13, %7
  %17 = phi ptr [ %16, %13 ], [ null, %7 ]
  %18 = icmp sgt i32 %.val.val.i.i, -500
  br i1 %18, label %.lr.ph.i.i.i, label %Vec_IntFill.exit.i.i

.lr.ph.i.i.i:                                     ; preds = %Vec_IntGrow.exit.i.i.i
  %19 = zext nneg i32 %11 to i64
  %20 = shl nuw nsw i64 %19, 2
  tail call void @llvm.memset.p0.i64(ptr align 4 %17, i8 0, i64 %20, i1 false), !tbaa !48
  br label %Vec_IntFill.exit.i.i

Vec_IntFill.exit.i.i:                             ; preds = %.lr.ph.i.i.i, %Vec_IntGrow.exit.i.i.i
  %21 = getelementptr inbounds nuw i8, ptr %4, i64 228
  store i32 %11, ptr %21, align 4, !tbaa !37
  br label %Abc_NtkIncrementTravId.exit.i

Abc_NtkIncrementTravId.exit.i:                    ; preds = %Vec_IntFill.exit.i.i, %1
  %22 = getelementptr inbounds nuw i8, ptr %4, i64 216
  %23 = load i32, ptr %22, align 8, !tbaa !82
  %24 = add nsw i32 %23, 1
  store i32 %24, ptr %22, align 8, !tbaa !82
  %25 = getelementptr inbounds nuw i8, ptr %0, i64 32
  %26 = load ptr, ptr %25, align 8, !tbaa !100
  %27 = getelementptr i8, ptr %26, i64 4
  %.val910.i = load i32, ptr %27, align 4, !tbaa !21
  %28 = icmp sgt i32 %.val910.i, 0
  br i1 %28, label %.lr.ph.i, label %Abc_NtkDontCareWinSweepLeafTfo.exit

.lr.ph.i:                                         ; preds = %Abc_NtkIncrementTravId.exit.i
  %29 = getelementptr inbounds nuw i8, ptr %0, i64 4
  br label %30

30:                                               ; preds = %30, %.lr.ph.i
  %indvars.iv.i = phi i64 [ 0, %.lr.ph.i ], [ %indvars.iv.next.i, %30 ]
  %31 = phi ptr [ %26, %.lr.ph.i ], [ %41, %30 ]
  %32 = getelementptr i8, ptr %31, i64 8
  %.val.i = load ptr, ptr %32, align 8, !tbaa !24
  %33 = getelementptr inbounds nuw ptr, ptr %.val.i, i64 %indvars.iv.i
  %34 = load ptr, ptr %33, align 8, !tbaa !44
  %35 = load ptr, ptr %2, align 8, !tbaa !98
  %36 = getelementptr inbounds nuw i8, ptr %35, i64 20
  %37 = load i32, ptr %36, align 4
  %38 = lshr i32 %37, 12
  %39 = load i32, ptr %29, align 4, !tbaa !17
  %40 = add nsw i32 %38, %39
  tail call void @Abc_NtkDontCareWinSweepLeafTfo_rec(ptr noundef %34, i32 noundef %40, ptr noundef %35)
  %indvars.iv.next.i = add nuw nsw i64 %indvars.iv.i, 1
  %41 = load ptr, ptr %25, align 8, !tbaa !100
  %42 = getelementptr i8, ptr %41, i64 4
  %.val9.i = load i32, ptr %42, align 4, !tbaa !21
  %43 = sext i32 %.val9.i to i64
  %44 = icmp slt i64 %indvars.iv.next.i, %43
  br i1 %44, label %30, label %Abc_NtkDontCareWinSweepLeafTfo.exit, !llvm.loop !101

Abc_NtkDontCareWinSweepLeafTfo.exit:              ; preds = %30, %Abc_NtkIncrementTravId.exit.i
  tail call void @Abc_NtkDontCareWinCollectRoots(ptr noundef nonnull %0)
  %45 = getelementptr inbounds nuw i8, ptr %0, i64 40
  %46 = load ptr, ptr %45, align 8, !tbaa !25
  %47 = getelementptr i8, ptr %46, i64 4
  %.val6 = load i32, ptr %47, align 4, !tbaa !21
  %48 = icmp eq i32 %.val6, 1
  br i1 %48, label %49, label %54

49:                                               ; preds = %Abc_NtkDontCareWinSweepLeafTfo.exit
  %50 = getelementptr i8, ptr %46, i64 8
  %.val = load ptr, ptr %50, align 8, !tbaa !24
  %51 = load ptr, ptr %.val, align 8, !tbaa !44
  %52 = load ptr, ptr %2, align 8, !tbaa !98
  %53 = icmp eq ptr %51, %52
  br i1 %53, label %56, label %54

54:                                               ; preds = %49, %Abc_NtkDontCareWinSweepLeafTfo.exit
  %55 = tail call i32 @Abc_NtkDontCareWinAddMissing(ptr noundef nonnull %0)
  br label %56

56:                                               ; preds = %54, %49
  %.0 = phi i32 [ 0, %49 ], [ %55, %54 ]
  ret i32 %.0
}